target datalayout = "e-m:e-p270:32:32-p271:32:32-p272:64:64-i64:64-i128:128-f80:128-n8:16:32:64-S128"
target triple = "x86_64-pc-linux-gnu"

%struct.Curl_multi = type { i32, i32, i32, %struct.Curl_llist, %struct.Curl_llist, %struct.Curl_llist, %struct.Curl_llist, i64, ptr, ptr, ptr, ptr, %struct.Curl_hash, ptr, %struct.PslCache, ptr, ptr, i64, ptr, i64, ptr, i64, %struct.Curl_hash, %struct.Curl_hash, %struct.cpool, i64, i64, ptr, ptr, i64, %struct.curltime, [2 x i32], i32, i32, i8, i8 }
%struct.Curl_llist = type { ptr, ptr, ptr, i64 }
%struct.PslCache = type { ptr, i64, i8 }
%struct.Curl_hash = type { ptr, ptr, ptr, ptr, i64, i64 }
%struct.cpool = type { %struct.Curl_hash, i64, i64, i64, %struct.curltime, %struct.Curl_llist, ptr, ptr, ptr, ptr, i8 }
%struct.curltime = type { i64, i32 }
%struct.Curl_sh_entry = type { %struct.Curl_hash, i32, i32, ptr, i32, i32 }

; Function Attrs: nounwind uwtable
define internal ptr @sh_getentry(ptr noundef %0, i32 noundef %1) #0 {
  %3 = alloca ptr, align 8
  %4 = alloca ptr, align 8
  %5 = alloca i32, align 4
  store ptr %0, ptr %4, align 8, !tbaa !32
  store i32 %1, ptr %5, align 4, !tbaa !30
  %6 = load i32, ptr %5, align 4, !tbaa !30
  %7 = icmp ne i32 %6, -1
  br i1 %7, label %8, label %11

8:                                                ; preds = %2
  %9 = load ptr, ptr %4, align 8, !tbaa !32
  %10 = call ptr @Curl_hash_pick(ptr noundef %9, ptr noundef %5, i64 noundef 4)
  store ptr %10, ptr %3, align 8
  br label %12

11:                                               ; preds = %2
  store ptr null, ptr %3, align 8
  br label %12

12:                                               ; preds = %11, %8
  %13 = load ptr, ptr %3, align 8
  ret ptr %13
}

; Function Attrs: nounwind uwtable
define i32 @curl_multi_assign(ptr noundef %0, i32 noundef %1, ptr noundef %2) #0 {
  %4 = alloca i32, align 4
  %5 = alloca ptr, align 8
  %6 = alloca i32, align 4
  %7 = alloca ptr, align 8
  %8 = alloca ptr, align 8
  %9 = alloca ptr, align 8
  %10 = alloca i32, align 4
  store ptr %0, ptr %5, align 8, !tbaa !7
  store i32 %1, ptr %6, align 4, !tbaa !30
  store ptr %2, ptr %7, align 8, !tbaa !7
  call void @llvm.lifetime.start.p0(i64 8, ptr %8) #9
  store ptr null, ptr %8, align 8, !tbaa !39
  call void @llvm.lifetime.start.p0(i64 8, ptr %9) #9
  %11 = load ptr, ptr %5, align 8, !tbaa !7
  store ptr %11, ptr %9, align 8, !tbaa !9
  %12 = load ptr, ptr %9, align 8, !tbaa !9
  %13 = icmp ne ptr %12, null
  br i1 %13, label %14, label %19

14:                                               ; preds = %3
  %15 = load ptr, ptr %9, align 8, !tbaa !9
  %16 = getelementptr inbounds nuw %struct.Curl_multi, ptr %15, i32 0, i32 0
  %17 = load i32, ptr %16, align 8, !tbaa !11
  %18 = icmp eq i32 %17, 764702
  br i1 %18, label %20, label %19

19:                                               ; preds = %14, %3
  store i32 1, ptr %4, align 4
  store i32 1, ptr %10, align 4
  br label %32

20:                                               ; preds = %14
  %21 = load ptr, ptr %9, align 8, !tbaa !9
  %22 = getelementptr inbounds nuw %struct.Curl_multi, ptr %21, i32 0, i32 22
  %23 = load i32, ptr %6, align 4, !tbaa !30
  %24 = call ptr @sh_getentry(ptr noundef %22, i32 noundef %23)
  store ptr %24, ptr %8, align 8, !tbaa !39
  %25 = load ptr, ptr %8, align 8, !tbaa !39
  %26 = icmp ne ptr %25, null
  br i1 %26, label %28, label %27

27:                                               ; preds = %20
  store i32 5, ptr %4, align 4
  store i32 1, ptr %10, align 4
  br label %32

28:                                               ; preds = %20
  %29 = load ptr, ptr %7, align 8, !tbaa !7
  %30 = load ptr, ptr %8, align 8, !tbaa !39
  %31 = getelementptr inbounds nuw %struct.Curl_sh_entry, ptr %30, i32 0, i32 3
  store ptr %29, ptr %31, align 8, !tbaa !230
  store i32 0, ptr %4, align 4
  store i32 1, ptr %10, align 4
  br label %32

32:                                               ; preds = %28, %27, %19
  call void @llvm.lifetime.end.p0(i64 8, ptr %9) #9
  call void @llvm.lifetime.end.p0(i64 8, ptr %8) #9
  %33 = load i32, ptr %4, align 4
  ret i32 %33
}