; Function Attrs: nounwind uwtable
define range(i32 0, 6) i32 @curl_multi_assign(ptr noundef %0, i32 noundef %1, ptr noundef %2) local_unnamed_addr #0 {
  %4 = alloca i32, align 4
  %.not = icmp eq ptr %0, null
  br i1 %.not, label %13, label %5

5:                                                ; preds = %3
  %6 = load i32, ptr %0, align 8, !tbaa !7
  %7 = icmp eq i32 %6, 764702
  br i1 %7, label %8, label %13

8:                                                ; preds = %5
  call void @llvm.lifetime.start.p0(i64 4, ptr nonnull %4)
  store i32 %1, ptr %4, align 4, !tbaa !28
  %.not.i = icmp eq i32 %1, -1
  br i1 %.not.i, label %sh_getentry.exit.thread, label %sh_getentry.exit

sh_getentry.exit.thread:                          ; preds = %8
  call void @llvm.lifetime.end.p0(i64 4, ptr nonnull %4)
  br label %13

sh_getentry.exit:                                 ; preds = %8
  %9 = getelementptr inbounds nuw i8, ptr %0, i64 320
  %10 = call ptr @Curl_hash_pick(ptr noundef nonnull %9, ptr noundef nonnull %4, i64 noundef 4) #19
  call void @llvm.lifetime.end.p0(i64 4, ptr nonnull %4)
  %.not10 = icmp eq ptr %10, null
  br i1 %.not10, label %13, label %11

11:                                               ; preds = %sh_getentry.exit
  %12 = getelementptr inbounds nuw i8, ptr %10, i64 56
  store ptr %2, ptr %12, align 8, !tbaa !217
  br label %13

13:                                               ; preds = %sh_getentry.exit.thread, %sh_getentry.exit, %3, %5, %11
  %.0 = phi i32 [ 0, %11 ], [ 1, %5 ], [ 1, %3 ], [ 5, %sh_getentry.exit ], [ 5, %sh_getentry.exit.thread ]
  ret i32 %.0
}